; Function Attrs: nounwind uwtable
define i32 @EC_KEY_set_method(ptr noundef %0, ptr noundef %1) local_unnamed_addr #4 {
  %3 = load ptr, ptr %0, align 8, !tbaa !8
  %4 = getelementptr inbounds nuw i8, ptr %3, i64 24
  %5 = load ptr, ptr %4, align 8, !tbaa !21
  %.not = icmp eq ptr %5, null
  br i1 %.not, label %7, label %6

6:                                                ; preds = %2
  tail call void %5(ptr noundef nonnull %0) #10
  br label %7

7:                                                ; preds = %6, %2
  %8 = getelementptr inbounds nuw i8, ptr %0, i64 8
  %9 = load ptr, ptr %8, align 8, !tbaa !23
  %10 = tail call i32 @ENGINE_finish(ptr noundef %9) #10
  store ptr null, ptr %8, align 8, !tbaa !23
  store ptr %1, ptr %0, align 8, !tbaa !8
  %11 = getelementptr inbounds nuw i8, ptr %1, i64 16
  %12 = load ptr, ptr %11, align 8, !tbaa !24
  %.not13 = icmp eq ptr %12, null
  br i1 %.not13, label %15, label %13

13:                                               ; preds = %7
  %14 = tail call i32 %12(ptr noundef nonnull %0) #10
  br label %15

15:                                               ; preds = %7, %13
  %.0 = phi i32 [ %14, %13 ], [ 1, %7 ]
  ret i32 %.0
}